target datalayout = "e-m:e-p270:32:32-p271:32:32-p272:64:64-i64:64-i128:128-f80:128-n8:16:32:64-S128"
target triple = "x86_64-pc-linux-gnu"

%struct.Vector2 = type { float, float }
%struct.anon.2 = type { i8, double }
%struct.anon.3 = type { %struct.Vector2, float, float, float }
%struct.anon.4 = type { double }
%struct.anon.5 = type { %struct.Vector2, float, float }
%struct.GesturesData = type { i32, i32, %struct.anon.1, %struct.anon.2, %struct.anon.3, %struct.anon.4, %struct.anon.5 }
%struct.anon.1 = type { i32, i32, double, %struct.Vector2, %struct.Vector2, %struct.Vector2, %struct.Vector2, %struct.Vector2, %struct.Vector2, %struct.Vector2, %struct.Vector2, i32 }

; Function Attrs: nounwind uwtable
define double @GetTime() #0 {
  %1 = alloca double, align 8
  call void @llvm.lifetime.start.p0(i64 8, ptr %1) #16
  %2 = call double @glfwGetTime()
  store double %2, ptr %1, align 8
  %3 = load double, ptr %1, align 8
  call void @llvm.lifetime.end.p0(i64 8, ptr %1) #16
  ret double %3
}

; Function Attrs: nounwind uwtable
define internal double @rgGetCurrentTime() #0 {
  %1 = alloca double, align 8
  call void @llvm.lifetime.start.p0(i64 8, ptr %1) #16
  store double 0.000000e+00, ptr %1, align 8
  %2 = call double @GetTime()
  store double %2, ptr %1, align 8
  %3 = load double, ptr %1, align 8
  call void @llvm.lifetime.end.p0(i64 8, ptr %1) #16
  ret double %3
}

; Function Attrs: nounwind uwtable
define float @GetGestureHoldDuration() #0 {
  %1 = alloca double, align 8
  call void @llvm.lifetime.start.p0(i64 8, ptr %1) #16
  store double 0.000000e+00, ptr %1, align 8
  %2 = load i32, ptr @GESTURES, align 8
  %3 = icmp eq i32 %2, 4
  br i1 %3, label %4, label %8

4:                                                ; preds = %0
  %5 = call double @rgGetCurrentTime()
  %6 = load double, ptr getelementptr inbounds nuw (%struct.anon.2, ptr getelementptr inbounds nuw (%struct.GesturesData, ptr @GESTURES, i32 0, i32 3), i32 0, i32 1), align 8
  %7 = fsub double %5, %6
  store double %7, ptr %1, align 8
  br label %8

8:                                                ; preds = %4, %0
  %9 = load double, ptr %1, align 8
  %10 = fptrunc double %9 to float
  call void @llvm.lifetime.end.p0(i64 8, ptr %1) #16
  ret float %10
}