; Function Attrs: nounwind uwtable
define float @GetGestureHoldDuration() local_unnamed_addr #0 {
  %1 = load i32, ptr @GESTURES, align 8
  %2 = icmp eq i32 %1, 4
  br i1 %2, label %3, label %8

3:                                                ; preds = %0
  %4 = tail call double @glfwGetTime() #56
  %5 = load double, ptr getelementptr inbounds nuw (i8, ptr @GESTURES, i64 104), align 8
  %6 = fsub double %4, %5
  %7 = fptrunc double %6 to float
  br label %8

8:                                                ; preds = %3, %0
  %.0 = phi float [ %7, %3 ], [ 0.000000e+00, %0 ]
  ret float %.0
}